target datalayout = "e-m:e-p270:32:32-p271:32:32-p272:64:64-i64:64-i128:128-f80:128-n8:16:32:64-S128"
target triple = "x86_64-pc-linux-gnu"

@ossl_md4_functions = constant [10 x { i32, [4 x i8], ptr }] [{ i32, [4 x i8], ptr } { i32 1, [4 x i8] zeroinitializer, ptr @md4_newctx }, { i32, [4 x i8], ptr } { i32 3, [4 x i8] zeroinitializer, ptr @MD4_Update }, { i32, [4 x i8], ptr } { i32 4, [4 x i8] zeroinitializer, ptr @md4_internal_final }, { i32, [4 x i8], ptr } { i32 6, [4 x i8] zeroinitializer, ptr @md4_freectx }, { i32, [4 x i8], ptr } { i32 7, [4 x i8] zeroinitializer, ptr @md4_dupctx }, { i32, [4 x i8], ptr } { i32 15, [4 x i8] zeroinitializer, ptr @md4_copyctx }, { i32, [4 x i8], ptr } { i32 8, [4 x i8] zeroinitializer, ptr @md4_get_params }, { i32, [4 x i8], ptr } { i32 11, [4 x i8] zeroinitializer, ptr @ossl_digest_default_gettable_params }, { i32, [4 x i8], ptr } { i32 2, [4 x i8] zeroinitializer, ptr @md4_internal_init }, { i32, [4 x i8], ptr } zeroinitializer], align 16
@.str = private unnamed_addr constant [56 x i8] c"../openssl/providers/implementations/digests/md4_prov.c\00", align 1

; Function Attrs: nounwind uwtable
define internal ptr @md4_newctx(ptr noundef %0) #0 {
  %2 = alloca ptr, align 8
  %3 = alloca ptr, align 8
  store ptr %0, ptr %2, align 8, !tbaa !3
  call void @llvm.lifetime.start.p0(i64 8, ptr %3) #4
  %4 = call i32 @ossl_prov_is_running()
  %5 = icmp ne i32 %4, 0
  br i1 %5, label %6, label %8

6:                                                ; preds = %1
  %7 = call noalias ptr @CRYPTO_zalloc(i64 noundef 92, ptr noundef @.str, i32 noundef 24)
  br label %9

8:                                                ; preds = %1
  br label %9

9:                                                ; preds = %8, %6
  %10 = phi ptr [ %7, %6 ], [ null, %8 ]
  store ptr %10, ptr %3, align 8, !tbaa !7
  %11 = load ptr, ptr %3, align 8, !tbaa !7
  call void @llvm.lifetime.end.p0(i64 8, ptr %3) #4
  ret ptr %11
}

declare i32 @MD4_Update(ptr noundef, ptr noundef, i64 noundef) #1

; Function Attrs: nounwind uwtable
define internal i32 @md4_internal_final(ptr noundef %0, ptr noundef %1, ptr noundef %2, i64 noundef %3) #0 {
  %5 = alloca i32, align 4
  %6 = alloca ptr, align 8
  %7 = alloca ptr, align 8
  %8 = alloca ptr, align 8
  %9 = alloca i64, align 8
  store ptr %0, ptr %6, align 8, !tbaa !3
  store ptr %1, ptr %7, align 8, !tbaa !9
  store ptr %2, ptr %8, align 8, !tbaa !11
  store i64 %3, ptr %9, align 8, !tbaa !13
  %10 = call i32 @ossl_prov_is_running()
  %11 = icmp ne i32 %10, 0
  br i1 %11, label %12, label %22

12:                                               ; preds = %4
  %13 = load i64, ptr %9, align 8, !tbaa !13
  %14 = icmp uge i64 %13, 16
  br i1 %14, label %15, label %22

15:                                               ; preds = %12
  %16 = load ptr, ptr %7, align 8, !tbaa !9
  %17 = load ptr, ptr %6, align 8, !tbaa !3
  %18 = call i32 @MD4_Final(ptr noundef %16, ptr noundef %17)
  %19 = icmp ne i32 %18, 0
  br i1 %19, label %20, label %22

20:                                               ; preds = %15
  %21 = load ptr, ptr %8, align 8, !tbaa !11
  store i64 16, ptr %21, align 8, !tbaa !13
  store i32 1, ptr %5, align 4
  br label %23

22:                                               ; preds = %15, %12, %4
  store i32 0, ptr %5, align 4
  br label %23

23:                                               ; preds = %22, %20
  %24 = load i32, ptr %5, align 4
  ret i32 %24
}

; Function Attrs: nounwind uwtable
define internal void @md4_freectx(ptr noundef %0) #0 {
  %2 = alloca ptr, align 8
  %3 = alloca ptr, align 8
  store ptr %0, ptr %2, align 8, !tbaa !3
  call void @llvm.lifetime.start.p0(i64 8, ptr %3) #4
  %4 = load ptr, ptr %2, align 8, !tbaa !3
  store ptr %4, ptr %3, align 8, !tbaa !7
  %5 = load ptr, ptr %3, align 8, !tbaa !7
  call void @CRYPTO_clear_free(ptr noundef %5, i64 noundef 92, ptr noundef @.str, i32 noundef 24)
  call void @llvm.lifetime.end.p0(i64 8, ptr %3) #4
  ret void
}

; Function Attrs: nounwind uwtable
define internal ptr @md4_dupctx(ptr noundef %0) #0 {
  %2 = alloca ptr, align 8
  %3 = alloca ptr, align 8
  %4 = alloca ptr, align 8
  store ptr %0, ptr %2, align 8, !tbaa !3
  call void @llvm.lifetime.start.p0(i64 8, ptr %3) #4
  %5 = load ptr, ptr %2, align 8, !tbaa !3
  store ptr %5, ptr %3, align 8, !tbaa !7
  call void @llvm.lifetime.start.p0(i64 8, ptr %4) #4
  %6 = call i32 @ossl_prov_is_running()
  %7 = icmp ne i32 %6, 0
  br i1 %7, label %8, label %10

8:                                                ; preds = %1
  %9 = call noalias ptr @CRYPTO_malloc(i64 noundef 92, ptr noundef @.str, i32 noundef 24)
  br label %11

10:                                               ; preds = %1
  br label %11

11:                                               ; preds = %10, %8
  %12 = phi ptr [ %9, %8 ], [ null, %10 ]
  store ptr %12, ptr %4, align 8, !tbaa !7
  %13 = load ptr, ptr %4, align 8, !tbaa !7
  %14 = icmp ne ptr %13, null
  br i1 %14, label %15, label %18

15:                                               ; preds = %11
  %16 = load ptr, ptr %4, align 8, !tbaa !7
  %17 = load ptr, ptr %3, align 8, !tbaa !7
  call void @llvm.memcpy.p0.p0.i64(ptr align 4 %16, ptr align 4 %17, i64 92, i1 false), !tbaa.struct !15
  br label %18

18:                                               ; preds = %15, %11
  %19 = load ptr, ptr %4, align 8, !tbaa !7
  call void @llvm.lifetime.end.p0(i64 8, ptr %4) #4
  call void @llvm.lifetime.end.p0(i64 8, ptr %3) #4
  ret ptr %19
}

; Function Attrs: nounwind uwtable
define internal void @md4_copyctx(ptr noundef %0, ptr noundef %1) #0 {
  %3 = alloca ptr, align 8
  %4 = alloca ptr, align 8
  %5 = alloca ptr, align 8
  %6 = alloca ptr, align 8
  store ptr %0, ptr %3, align 8, !tbaa !3
  store ptr %1, ptr %4, align 8, !tbaa !3
  call void @llvm.lifetime.start.p0(i64 8, ptr %5) #4
  %7 = load ptr, ptr %3, align 8, !tbaa !3
  store ptr %7, ptr %5, align 8, !tbaa !7
  call void @llvm.lifetime.start.p0(i64 8, ptr %6) #4
  %8 = load ptr, ptr %4, align 8, !tbaa !3
  store ptr %8, ptr %6, align 8, !tbaa !7
  %9 = load ptr, ptr %5, align 8, !tbaa !7
  %10 = load ptr, ptr %6, align 8, !tbaa !7
  call void @llvm.memcpy.p0.p0.i64(ptr align 4 %9, ptr align 4 %10, i64 92, i1 false), !tbaa.struct !15
  call void @llvm.lifetime.end.p0(i64 8, ptr %6) #4
  call void @llvm.lifetime.end.p0(i64 8, ptr %5) #4
  ret void
}

; Function Attrs: nounwind uwtable
define internal i32 @md4_get_params(ptr noundef %0) #0 {
  %2 = alloca ptr, align 8
  store ptr %0, ptr %2, align 8, !tbaa !19
  %3 = load ptr, ptr %2, align 8, !tbaa !19
  %4 = call i32 @ossl_digest_default_get_params(ptr noundef %3, i64 noundef 64, i64 noundef 16, i64 noundef 0)
  ret i32 %4
}

declare ptr @ossl_digest_default_gettable_params(ptr noundef) #1

; Function Attrs: nounwind uwtable
define internal i32 @md4_internal_init(ptr noundef %0, ptr noundef %1) #0 {
  %3 = alloca ptr, align 8
  %4 = alloca ptr, align 8
  store ptr %0, ptr %3, align 8, !tbaa !3
  store ptr %1, ptr %4, align 8, !tbaa !19
  %5 = call i32 @ossl_prov_is_running()
  %6 = icmp ne i32 %5, 0
  br i1 %6, label %7, label %11

7:                                                ; preds = %2
  %8 = load ptr, ptr %3, align 8, !tbaa !3
  %9 = call i32 @MD4_Init(ptr noundef %8)
  %10 = icmp ne i32 %9, 0
  br label %11

11:                                               ; preds = %7, %2
  %12 = phi i1 [ false, %2 ], [ %10, %7 ]
  %13 = zext i1 %12 to i32
  ret i32 %13
}

; Function Attrs: nocallback nofree nosync nounwind willreturn memory(argmem: readwrite)
declare void @llvm.lifetime.start.p0(i64 immarg, ptr captures(none)) #2

declare i32 @ossl_prov_is_running() #1

declare noalias ptr @CRYPTO_zalloc(i64 noundef, ptr noundef, i32 noundef) #1

; Function Attrs: nocallback nofree nosync nounwind willreturn memory(argmem: readwrite)
declare void @llvm.lifetime.end.p0(i64 immarg, ptr captures(none)) #2

declare i32 @MD4_Final(ptr noundef, ptr noundef) #1

declare void @CRYPTO_clear_free(ptr noundef, i64 noundef, ptr noundef, i32 noundef) #1

declare noalias ptr @CRYPTO_malloc(i64 noundef, ptr noundef, i32 noundef) #1

; Function Attrs: nocallback nofree nounwind willreturn memory(argmem: readwrite)
declare void @llvm.memcpy.p0.p0.i64(ptr noalias writeonly captures(none), ptr noalias readonly captures(none), i64, i1 immarg) #3

declare i32 @ossl_digest_default_get_params(ptr noundef, i64 noundef, i64 noundef, i64 noundef) #1

declare i32 @MD4_Init(ptr noundef) #1


!llvm.module.flags = !{!0, !1, !2}

!0 = !{i32 1, !"wchar_size", i32 4}
!1 = !{i32 8, !"PIC Level", i32 2}
!2 = !{i32 7, !"uwtable", i32 2}
!3 = !{!4, !4, i64 0}
!4 = !{!"any pointer", !5, i64 0}
!5 = !{!"omnipotent char", !6, i64 0}
!6 = !{!"Simple C/C++ TBAA"}
!7 = !{!8, !8, i64 0}
!8 = !{!"p1 _ZTS11MD4state_st", !4, i64 0}
!9 = !{!10, !10, i64 0}
!10 = !{!"p1 omnipotent char", !4, i64 0}
!11 = !{!12, !12, i64 0}
!12 = !{!"p1 long", !4, i64 0}
!13 = !{!14, !14, i64 0}
!14 = !{!"long", !5, i64 0}
!15 = !{i64 0, i64 4, !16, i64 4, i64 4, !16, i64 8, i64 4, !16, i64 12, i64 4, !16, i64 16, i64 4, !16, i64 20, i64 4, !16, i64 24, i64 64, !18, i64 88, i64 4, !16}
!16 = !{!17, !17, i64 0}
!17 = !{!"int", !5, i64 0}
!18 = !{!5, !5, i64 0}
!19 = !{!20, !20, i64 0}
!20 = !{!"p1 _ZTS13ossl_param_st", !4, i64 0}
